; Function Attrs: mustprogress nofree norecurse nosync nounwind willreturn memory(argmem: write) uwtable
define void @ubidi_orderParagraphsLTR_77(ptr noundef writeonly %0, i8 noundef signext %1) local_unnamed_addr #6 {
  %.not = icmp eq ptr %0, null
  br i1 %.not, label %5, label %3

3:                                                ; preds = %2
  %4 = getelementptr inbounds nuw i8, ptr %0, i64 140
  store i8 %1, ptr %4, align 4, !tbaa !84
  br label %5

5:                                                ; preds = %3, %2
  ret void
}